target datalayout = "e-m:e-p270:32:32-p271:32:32-p272:64:64-i64:64-i128:128-f80:128-n8:16:32:64-S128"
target triple = "x86_64-pc-linux-gnu"

%union.anon.1 = type { ptr }

; Function Attrs: nounwind uwtable
define i32 @H5LTread_dataset_string(i64 noundef %0, ptr noundef %1, ptr noundef %2) #0 {
  %4 = alloca i32, align 4
  %5 = alloca i64, align 8
  %6 = alloca ptr, align 8
  %7 = alloca ptr, align 8
  %8 = alloca i64, align 8
  %9 = alloca i64, align 8
  %10 = alloca i32, align 4
  %11 = alloca i32, align 4
  %12 = alloca %union.anon.1, align 8
  %13 = alloca ptr, align 8
  store i64 %0, ptr %5, align 8, !tbaa !3
  store ptr %1, ptr %6, align 8, !tbaa !7
  store ptr %2, ptr %7, align 8, !tbaa !7
  call void @llvm.lifetime.start.p0(i64 8, ptr %8) #11
  store i64 -1, ptr %8, align 8, !tbaa !3
  call void @llvm.lifetime.start.p0(i64 8, ptr %9) #11
  store i64 -1, ptr %9, align 8, !tbaa !3
  %14 = load ptr, ptr %6, align 8, !tbaa !7
  %15 = icmp eq ptr %14, null
  br i1 %15, label %16, label %17

16:                                               ; preds = %3
  store i32 -1, ptr %4, align 4
  store i32 1, ptr %10, align 4
  br label %72

17:                                               ; preds = %3
  %18 = load i64, ptr %5, align 8, !tbaa !3
  %19 = load ptr, ptr %6, align 8, !tbaa !7
  %20 = call i64 @H5Dopen2(i64 noundef %18, ptr noundef %19, i64 noundef 0)
  store i64 %20, ptr %8, align 8, !tbaa !3
  %21 = icmp slt i64 %20, 0
  br i1 %21, label %22, label %23

22:                                               ; preds = %17
  store i32 -1, ptr %4, align 4
  store i32 1, ptr %10, align 4
  br label %72

23:                                               ; preds = %17
  %24 = load i64, ptr %8, align 8, !tbaa !3
  %25 = call i64 @H5Dget_type(i64 noundef %24)
  store i64 %25, ptr %9, align 8, !tbaa !3
  %26 = icmp slt i64 %25, 0
  br i1 %26, label %27, label %28

27:                                               ; preds = %23
  br label %46

28:                                               ; preds = %23
  %29 = load i64, ptr %8, align 8, !tbaa !3
  %30 = load i64, ptr %9, align 8, !tbaa !3
  %31 = load ptr, ptr %7, align 8, !tbaa !7
  %32 = call i32 @H5Dread(i64 noundef %29, i64 noundef %30, i64 noundef 0, i64 noundef 0, i64 noundef 0, ptr noundef %31)
  %33 = icmp slt i32 %32, 0
  br i1 %33, label %34, label %35

34:                                               ; preds = %28
  br label %46

35:                                               ; preds = %28
  %36 = load i64, ptr %8, align 8, !tbaa !3
  %37 = call i32 @H5Dclose(i64 noundef %36)
  %38 = icmp ne i32 %37, 0
  br i1 %38, label %39, label %40

39:                                               ; preds = %35
  br label %46

40:                                               ; preds = %35
  %41 = load i64, ptr %9, align 8, !tbaa !3
  %42 = call i32 @H5Tclose(i64 noundef %41)
  %43 = icmp ne i32 %42, 0
  br i1 %43, label %44, label %45

44:                                               ; preds = %40
  store i32 -1, ptr %4, align 4
  store i32 1, ptr %10, align 4
  br label %72

45:                                               ; preds = %40
  store i32 0, ptr %4, align 4
  store i32 1, ptr %10, align 4
  br label %72

46:                                               ; preds = %39, %34, %27
  call void @llvm.lifetime.start.p0(i64 4, ptr %11) #11
  call void @llvm.lifetime.start.p0(i64 8, ptr %12) #11
  call void @llvm.lifetime.start.p0(i64 8, ptr %13) #11
  %47 = call i32 @H5Eauto_is_v2(i64 noundef 0, ptr noundef %11)
  %48 = load i32, ptr %11, align 4, !tbaa !10
  %49 = icmp ne i32 %48, 0
  br i1 %49, label %50, label %53

50:                                               ; preds = %46
  %51 = call i32 @H5Eget_auto2(i64 noundef 0, ptr noundef %12, ptr noundef %13)
  %52 = call i32 @H5Eset_auto2(i64 noundef 0, ptr noundef null, ptr noundef null)
  br label %56

53:                                               ; preds = %46
  %54 = call i32 @H5Eget_auto1(ptr noundef %12, ptr noundef %13)
  %55 = call i32 @H5Eset_auto1(ptr noundef null, ptr noundef null)
  br label %56

56:                                               ; preds = %53, %50
  %57 = load i64, ptr %8, align 8, !tbaa !3
  %58 = call i32 @H5Dclose(i64 noundef %57)
  %59 = load i64, ptr %9, align 8, !tbaa !3
  %60 = call i32 @H5Tclose(i64 noundef %59)
  %61 = load i32, ptr %11, align 4, !tbaa !10
  %62 = icmp ne i32 %61, 0
  br i1 %62, label %63, label %67

63:                                               ; preds = %56
  %64 = load ptr, ptr %12, align 8, !tbaa !15
  %65 = load ptr, ptr %13, align 8, !tbaa !14
  %66 = call i32 @H5Eset_auto2(i64 noundef 0, ptr noundef %64, ptr noundef %65)
  br label %71

67:                                               ; preds = %56
  %68 = load ptr, ptr %12, align 8, !tbaa !15
  %69 = load ptr, ptr %13, align 8, !tbaa !14
  %70 = call i32 @H5Eset_auto1(ptr noundef %68, ptr noundef %69)
  br label %71

71:                                               ; preds = %67, %63
  call void @llvm.lifetime.end.p0(i64 8, ptr %13) #11
  call void @llvm.lifetime.end.p0(i64 8, ptr %12) #11
  call void @llvm.lifetime.end.p0(i64 4, ptr %11) #11
  store i32 -1, ptr %4, align 4
  store i32 1, ptr %10, align 4
  br label %72

72:                                               ; preds = %71, %45, %44, %22, %16
  call void @llvm.lifetime.end.p0(i64 8, ptr %9) #11
  call void @llvm.lifetime.end.p0(i64 8, ptr %8) #11
  %73 = load i32, ptr %4, align 4
  ret i32 %73
}