; Function Attrs: nounwind uwtable
define range(i32 -1, 1) i32 @H5LTread_dataset_string(i64 noundef %0, ptr noundef %1, ptr noundef %2) local_unnamed_addr #0 {
  %4 = alloca i32, align 4
  %5 = alloca %union.anon.1, align 8
  %6 = alloca ptr, align 8
  %7 = icmp eq ptr %1, null
  br i1 %7, label %41, label %8

8:                                                ; preds = %3
  %9 = tail call i64 @H5Dopen2(i64 noundef %0, ptr noundef nonnull %1, i64 noundef 0) #20
  %10 = icmp slt i64 %9, 0
  br i1 %10, label %41, label %11

11:                                               ; preds = %8
  %12 = tail call i64 @H5Dget_type(i64 noundef %9) #20
  %13 = icmp slt i64 %12, 0
  br i1 %13, label %21, label %14

14:                                               ; preds = %11
  %15 = tail call i32 @H5Dread(i64 noundef %9, i64 noundef %12, i64 noundef 0, i64 noundef 0, i64 noundef 0, ptr noundef %2) #20
  %16 = icmp slt i32 %15, 0
  br i1 %16, label %21, label %17

17:                                               ; preds = %14
  %18 = tail call i32 @H5Dclose(i64 noundef %9) #20
  %.not = icmp eq i32 %18, 0
  br i1 %.not, label %19, label %21

19:                                               ; preds = %17
  %20 = tail call i32 @H5Tclose(i64 noundef %12) #20
  %.not14 = icmp ne i32 %20, 0
  %. = sext i1 %.not14 to i32
  br label %41

21:                                               ; preds = %17, %14, %11
  call void @llvm.lifetime.start.p0(i64 4, ptr nonnull %4) #20
  call void @llvm.lifetime.start.p0(i64 8, ptr nonnull %5) #20
  call void @llvm.lifetime.start.p0(i64 8, ptr nonnull %6) #20
  %22 = call i32 @H5Eauto_is_v2(i64 noundef 0, ptr noundef nonnull %4) #20
  %23 = load i32, ptr %4, align 4, !tbaa !3
  %.not15 = icmp eq i32 %23, 0
  br i1 %.not15, label %27, label %24

24:                                               ; preds = %21
  %25 = call i32 @H5Eget_auto2(i64 noundef 0, ptr noundef nonnull %5, ptr noundef nonnull %6) #20
  %26 = call i32 @H5Eset_auto2(i64 noundef 0, ptr noundef null, ptr noundef null) #20
  br label %30

27:                                               ; preds = %21
  %28 = call i32 @H5Eget_auto1(ptr noundef nonnull %5, ptr noundef nonnull %6) #20
  %29 = call i32 @H5Eset_auto1(ptr noundef null, ptr noundef null) #20
  br label %30

30:                                               ; preds = %27, %24
  %31 = call i32 @H5Dclose(i64 noundef %9) #20
  %32 = call i32 @H5Tclose(i64 noundef %12) #20
  %33 = load i32, ptr %4, align 4, !tbaa !3
  %.not16 = icmp eq i32 %33, 0
  %34 = load ptr, ptr %5, align 8, !tbaa !7
  %35 = load ptr, ptr %6, align 8, !tbaa !8
  br i1 %.not16, label %38, label %36

36:                                               ; preds = %30
  %37 = call i32 @H5Eset_auto2(i64 noundef 0, ptr noundef %34, ptr noundef %35) #20
  br label %40

38:                                               ; preds = %30
  %39 = call i32 @H5Eset_auto1(ptr noundef %34, ptr noundef %35) #20
  br label %40

40:                                               ; preds = %38, %36
  call void @llvm.lifetime.end.p0(i64 8, ptr nonnull %6) #20
  call void @llvm.lifetime.end.p0(i64 8, ptr nonnull %5) #20
  call void @llvm.lifetime.end.p0(i64 4, ptr nonnull %4) #20
  br label %41

41:                                               ; preds = %19, %8, %3, %40
  %.0 = phi i32 [ -1, %40 ], [ -1, %3 ], [ -1, %8 ], [ %., %19 ]
  ret i32 %.0
}